Certificate:
    Data:
        Version: 3 (0x2)
        Serial Number: 1 (0x1)
    Signature Algorithm: sha256WithRSAEncryption
        Issuer: C=US, ST=IL, L=Chicago, O=Hologram/emailAddress=admin@example.org, CN=Example Magic Certificate Authority
        Validity
            Not Before: Nov  1 19:05:08 2018 GMT
            Not After : Dec 31 19:05:08 2018 GMT
        Subject: C=US, ST=IL, O=Hologram, CN=something/emailAddress=webmaster@hologram.io
        Subject Public Key Info:
            Public Key Algorithm: rsaEncryption
                Public-Key: (2048 bit)
                Modulus:
                    00:bb:52:c3:95:3a:b3:11:36:5e:48:5c:20:dd:f5:
                    c7:8b:77:ed:7f:05:1b:8e:3d:0b:55:81:da:c1:57:
                    f0:25:25:46:5b:f5:55:02:60:01:79:ee:8f:e7:ca:
                    4b:85:74:ed:e3:eb:74:cb:db:b3:da:6b:91:d4:a5:
                    2e:ef:b1:48:70:aa:bb:8b:34:31:58:35:92:4b:4f:
                    58:72:93:32:ca:4e:7d:ae:94:72:dc:63:d6:a9:e4:
                    4b:0e:ab:d3:10:22:e9:3d:be:59:eb:42:c1:3e:a0:
                    14:8e:3c:ef:63:40:e1:a0:7a:e8:18:10:eb:4a:d3:
                    51:dc:02:1e:ce:19:76:f3:34:82:f9:86:d5:b3:61:
                    3a:86:9a:84:5a:84:ef:65:34:72:fb:af:8d:f1:2c:
                    1d:ee:f0:f4:a5:60:0e:01:66:63:ac:28:02:a5:cb:
                    82:ec:51:65:e2:98:10:78:02:81:10:b0:be:74:58:
                    9c:5d:1c:cb:32:e4:cb:a4:a5:4d:b6:a8:62:32:31:
                    cf:04:4f:b7:80:75:90:56:f9:43:d9:6f:71:93:12:
                    c8:1a:39:50:ae:4c:e0:af:b7:15:d7:68:6e:04:0b:
                    8f:58:88:d0:a8:86:7a:d4:63:9f:93:70:be:b9:0e:
                    11:07:8c:0f:cf:f0:4e:42:96:98:61:88:86:fa:d1:
                    71:cd
                Exponent: 65537 (0x10001)
        X509v3 extensions:
            X509v3 Extended Key Usage: 
                TLS Web Server Authentication
            X509v3 CRL Distribution Points: 

                Full Name:
                  URI:http://www.example.com/example_ca.crl

    Signature Algorithm: sha256WithRSAEncryption
         23:da:2f:bb:b5:86:50:64:6a:85:66:6a:95:30:5a:ba:da:b4:
         8c:b1:69:56:35:b5:38:7d:6a:68:20:39:5e:bc:7a:c2:1d:6e:
         43:df:f5:e0:98:a2:24:19:a6:b3:2d:3e:14:a6:9b:19:81:32:
         6c:8b:65:c7:2d:79:88:b9:e1:b4:b1:44:e3:18:2f:52:c2:cf:
         40:ea:ae:05:60:dd:c1:78:d3:81:1b:4a:ce:92:c0:8d:01:b3:
         56:9b:d4:76:eb:c9:73:1d:3b:c2:b1:d9:c1:84:9a:40:75:aa:
         7e:0d:a7:28:c2:b8:2b:5d:57:bf:c5:51:6f:44:12:9b:3a:1b:
         6b:7c:f2:ef:90:9e:4b:e6:ac:6c:0b:6b:2f:8c:88:d2:4f:a0:
         50:f1:6a:0a:fd:bf:7c:96:fb:01:30:f7:72:59:bb:e7:29:09:
         60:82:fd:2a:47:39:46:4c:9a:d9:dc:b0:0a:60:00:d8:da:08:
         bd:9a:13:60:88:57:1f:31:b6:6e:7e:c7:b3:56:10:ba:9b:13:
         7e:58:f5:88:56:7e:74:fe:a7:98:09:2a:17:bb:6c:61:dd:f0:
         b1:52:fd:15:a9:0b:55:dd:be:68:5e:d6:a9:5f:54:f9:b3:61:
         2f:20:0f:81:94:1f:8a:6e:38:dd:f9:5e:3b:91:f5:15:89:69:
         be:e0:8c:47
-----BEGIN CERTIFICATE-----
MIIDwTCCAqmgAwIBAgIBATANBgkqhkiG9w0BAQsFADCBjzELMAkGA1UEBhMCVVMx
CzAJBgNVBAgMAklMMRAwDgYDVQQHDAdDaGljYWdvMREwDwYDVQQKDAhIb2xvZ3Jh
bTEgMB4GCSqGSIb3DQEJARYRYWRtaW5AZXhhbXBsZS5vcmcxLDAqBgNVBAMMI0V4
YW1wbGUgTWFnaWMgQ2VydGlmaWNhdGUgQXV0aG9yaXR5MB4XDTE4MTEwMTE5MDUw
OFoXDTE4MTIzMTE5MDUwOFowZzELMAkGA1UEBhMCVVMxCzAJBgNVBAgMAklMMREw
DwYDVQQKDAhIb2xvZ3JhbTESMBAGA1UEAwwJc29tZXRoaW5nMSQwIgYJKoZIhvcN
AQkBFhV3ZWJtYXN0ZXJAaG9sb2dyYW0uaW8wggEiMA0GCSqGSIb3DQEBAQUAA4IB
DwAwggEKAoIBAQC7UsOVOrMRNl5IXCDd9ceLd+1/BRuOPQtVgdrBV/AlJUZb9VUC
YAF57o/nykuFdO3j63TL27Paa5HUpS7vsUhwqruLNDFYNZJLT1hykzLKTn2ulHLc
Y9ap5EsOq9MQIuk9vlnrQsE+oBSOPO9jQOGgeugYEOtK01HcAh7OGXbzNIL5htWz
YTqGmoRahO9lNHL7r43xLB3u8PSlYA4BZmOsKAKly4LsUWXimBB4AoEQsL50WJxd
HMsy5MukpU22qGIyMc8ET7eAdZBW+UPZb3GTEsgaOVCuTOCvtxXXaG4EC49YiNCo
hnrUY5+TcL65DhEHjA/P8E5ClphhiIb60XHNAgMBAAGjTzBNMBMGA1UdJQQMMAoG
CCsGAQUFBwMBMDYGA1UdHwQvMC0wK6ApoCeGJWh0dHA6Ly93d3cuZXhhbXBsZS5j
b20vZXhhbXBsZV9jYS5jcmwwDQYJKoZIhvcNAQELBQADggEBACPaL7u1hlBkaoVm
apUwWrratIyxaVY1tTh9amggOV68esIdbkPf9eCYoiQZprMtPhSmmxmBMmyLZcct
eYi54bSxROMYL1LCz0DqrgVg3cF404EbSs6SwI0Bs1ab1HbryXMdO8Kx2cGEmkB1
qn4NpyjCuCtdV7/FUW9EEps6G2t88u+QnkvmrGwLay+MiNJPoFDxagr9v3yW+wEw
93JZu+cpCWCC/SpHOUZMmtncsApgANjaCL2aE2CIVx8xtm5+x7NWELqbE35Y9YhW
fnT+p5gJKhe7bGHd8LFS/RWpC1Xdvmhe1qlfVPmzYS8gD4GUH4puON35XjuR9RWJ
ab7gjEc=
-----END CERTIFICATE-----
